target datalayout = "e-m:e-p270:32:32-p271:32:32-p272:64:64-i64:64-i128:128-f80:128-n8:16:32:64-S128"
target triple = "x86_64-pc-linux-gnu"

%struct.quic_port_st = type { ptr, %struct.anon, ptr, ptr, ptr, ptr, ptr, ptr, %struct.ossl_list_st_ch, %struct.ossl_list_st_incoming_ch, ptr, ptr, ptr, ptr, i8, i8, i16, ptr }
%struct.anon = type { ptr, ptr }
%struct.ossl_list_st_ch = type { ptr, ptr, i64 }
%struct.ossl_list_st_incoming_ch = type { ptr, ptr, i64 }

; Function Attrs: nounwind uwtable
define void @ossl_quic_port_set_allow_incoming(ptr noundef %0, i32 noundef %1) #0 {
  %3 = alloca ptr, align 8
  %4 = alloca i32, align 4
  store ptr %0, ptr %3, align 8, !tbaa !8
  store i32 %1, ptr %4, align 4, !tbaa !41
  %5 = load i32, ptr %4, align 4, !tbaa !41
  %6 = load ptr, ptr %3, align 8, !tbaa !8
  %7 = getelementptr inbounds nuw %struct.quic_port_st, ptr %6, i32 0, i32 16
  %8 = trunc i32 %5 to i16
  %9 = load i16, ptr %7, align 2
  %10 = and i16 %8, 1
  %11 = shl i16 %10, 4
  %12 = and i16 %9, -17
  %13 = or i16 %12, %11
  store i16 %13, ptr %7, align 2
  ret void
}