; Function Attrs: mustprogress nofree norecurse nosync nounwind willreturn memory(argmem: readwrite) uwtable
define void @ossl_quic_port_set_allow_incoming(ptr noundef captures(none) %0, i32 noundef %1) local_unnamed_addr #5 {
  %3 = getelementptr inbounds nuw i8, ptr %0, i64 154
  %4 = trunc i32 %1 to i16
  %5 = load i16, ptr %3, align 2
  %6 = shl i16 %4, 4
  %7 = and i16 %6, 16
  %8 = and i16 %5, -17
  %9 = or disjoint i16 %8, %7
  store i16 %9, ptr %3, align 2
  ret void
}